target datalayout = "e-m:e-p270:32:32-p271:32:32-p272:64:64-i64:64-i128:128-f80:128-n8:16:32:64-S128"
target triple = "x86_64-pc-linux-gnu"

%struct._GRWLock = type { ptr, [2 x i32] }
%struct._GArray = type { ptr, i32 }
%struct.CPU = type { ptr, ptr }

@cpus = internal global ptr null, align 8
@expand_array_lock = internal global %struct._GRWLock zeroinitializer, align 8
@.str.15 = private unnamed_addr constant [8 x i8] c", store\00", align 1
@.str.16 = private unnamed_addr constant [7 x i8] c", load\00", align 1
@.str.17 = private unnamed_addr constant [14 x i8] c", 0x%08lx, %s\00", align 1
@.str.18 = private unnamed_addr constant [10 x i8] c", 0x%08lx\00", align 1

; Function Attrs: nounwind sspstrong uwtable
define internal ptr @get_cpu(i32 noundef %0) #0 {
  %2 = alloca i32, align 4
  %3 = alloca ptr, align 8
  store i32 %0, ptr %2, align 4
  call void @llvm.lifetime.start.p0(i64 8, ptr %3) #11
  store ptr null, ptr %3, align 8, !annotation !7
  call void @g_rw_lock_reader_lock(ptr noundef @expand_array_lock)
  %4 = load ptr, ptr @cpus, align 8
  %5 = getelementptr inbounds nuw %struct._GArray, ptr %4, i32 0, i32 0
  %6 = load ptr, ptr %5, align 8
  %7 = load i32, ptr %2, align 4
  %8 = sext i32 %7 to i64
  %9 = getelementptr inbounds %struct.CPU, ptr %6, i64 %8
  store ptr %9, ptr %3, align 8
  call void @g_rw_lock_reader_unlock(ptr noundef @expand_array_lock)
  %10 = load ptr, ptr %3, align 8
  call void @llvm.lifetime.end.p0(i64 8, ptr %3) #11
  ret ptr %10
}

; Function Attrs: nounwind sspstrong uwtable
define internal void @vcpu_mem(i32 noundef %0, i32 noundef %1, i64 noundef %2, ptr noundef %3) #0 {
  %5 = alloca i32, align 4
  %6 = alloca i32, align 4
  %7 = alloca i64, align 8
  %8 = alloca ptr, align 8
  %9 = alloca ptr, align 8
  %10 = alloca ptr, align 8
  %11 = alloca ptr, align 8
  %12 = alloca i64, align 8
  %13 = alloca ptr, align 8
  store i32 %0, ptr %5, align 4
  store i32 %1, ptr %6, align 4
  store i64 %2, ptr %7, align 8
  store ptr %3, ptr %8, align 8
  call void @llvm.lifetime.start.p0(i64 8, ptr %9) #11
  %14 = load i32, ptr %5, align 4
  %15 = call ptr @get_cpu(i32 noundef %14)
  store ptr %15, ptr %9, align 8
  call void @llvm.lifetime.start.p0(i64 8, ptr %10) #11
  %16 = load ptr, ptr %9, align 8
  %17 = getelementptr inbounds nuw %struct.CPU, ptr %16, i32 0, i32 0
  %18 = load ptr, ptr %17, align 8
  store ptr %18, ptr %10, align 8
  %19 = load i32, ptr %6, align 4
  %20 = call zeroext i1 @qemu_plugin_mem_is_store(i32 noundef %19)
  br i1 %20, label %21, label %24

21:                                               ; preds = %4
  %22 = load ptr, ptr %10, align 8
  %23 = call ptr @g_string_append(ptr noundef %22, ptr noundef @.str.15)
  br label %27

24:                                               ; preds = %4
  %25 = load ptr, ptr %10, align 8
  %26 = call ptr @g_string_append(ptr noundef %25, ptr noundef @.str.16)
  br label %27

27:                                               ; preds = %24, %21
  call void @llvm.lifetime.start.p0(i64 8, ptr %11) #11
  %28 = load i32, ptr %6, align 4
  %29 = load i64, ptr %7, align 8
  %30 = call ptr @qemu_plugin_get_hwaddr(i32 noundef %28, i64 noundef %29)
  store ptr %30, ptr %11, align 8
  %31 = load ptr, ptr %11, align 8
  %32 = icmp ne ptr %31, null
  br i1 %32, label %33, label %41

33:                                               ; preds = %27
  call void @llvm.lifetime.start.p0(i64 8, ptr %12) #11
  %34 = load ptr, ptr %11, align 8
  %35 = call i64 @qemu_plugin_hwaddr_phys_addr(ptr noundef %34)
  store i64 %35, ptr %12, align 8
  call void @llvm.lifetime.start.p0(i64 8, ptr %13) #11
  %36 = load ptr, ptr %11, align 8
  %37 = call ptr @qemu_plugin_hwaddr_device_name(ptr noundef %36)
  store ptr %37, ptr %13, align 8
  %38 = load ptr, ptr %10, align 8
  %39 = load i64, ptr %12, align 8
  %40 = load ptr, ptr %13, align 8
  call void (ptr, ptr, ...) @g_string_append_printf(ptr noundef %38, ptr noundef @.str.17, i64 noundef %39, ptr noundef %40)
  call void @llvm.lifetime.end.p0(i64 8, ptr %13) #11
  call void @llvm.lifetime.end.p0(i64 8, ptr %12) #11
  br label %44

41:                                               ; preds = %27
  %42 = load ptr, ptr %10, align 8
  %43 = load i64, ptr %7, align 8
  call void (ptr, ptr, ...) @g_string_append_printf(ptr noundef %42, ptr noundef @.str.18, i64 noundef %43)
  br label %44

44:                                               ; preds = %41, %33
  call void @llvm.lifetime.end.p0(i64 8, ptr %11) #11
  call void @llvm.lifetime.end.p0(i64 8, ptr %10) #11
  call void @llvm.lifetime.end.p0(i64 8, ptr %9) #11
  ret void
}