; Function Attrs: nounwind sspstrong uwtable
define internal void @vcpu_mem(i32 noundef %0, i32 noundef %1, i64 noundef %2, ptr readnone captures(none) %3) #0 {
  tail call void @g_rw_lock_reader_lock(ptr noundef nonnull @expand_array_lock) #7
  %5 = load ptr, ptr @cpus, align 8
  %6 = load ptr, ptr %5, align 8
  %7 = sext i32 %0 to i64
  %8 = getelementptr inbounds %struct.CPU, ptr %6, i64 %7
  tail call void @g_rw_lock_reader_unlock(ptr noundef nonnull @expand_array_lock) #7
  %9 = load ptr, ptr %8, align 8
  %10 = tail call zeroext i1 @qemu_plugin_mem_is_store(i32 noundef %1) #7
  %.str.15..str.16 = select i1 %10, ptr @.str.15, ptr @.str.16
  %11 = tail call ptr @g_string_append(ptr noundef %9, ptr noundef nonnull %.str.15..str.16) #7
  %12 = tail call ptr @qemu_plugin_get_hwaddr(i32 noundef %1, i64 noundef %2) #7
  %.not = icmp eq ptr %12, null
  br i1 %.not, label %16, label %13

13:                                               ; preds = %4
  %14 = tail call i64 @qemu_plugin_hwaddr_phys_addr(ptr noundef nonnull %12) #7
  %15 = tail call ptr @qemu_plugin_hwaddr_device_name(ptr noundef nonnull %12) #7
  tail call void (ptr, ptr, ...) @g_string_append_printf(ptr noundef %9, ptr noundef nonnull @.str.17, i64 noundef %14, ptr noundef %15) #7
  br label %17

16:                                               ; preds = %4
  tail call void (ptr, ptr, ...) @g_string_append_printf(ptr noundef %9, ptr noundef nonnull @.str.18, i64 noundef %2) #7
  br label %17

17:                                               ; preds = %16, %13
  ret void
}